; Function Attrs: nounwind uwtable
define dso_local noundef i32 @read_bundle_header(ptr noundef %0, ptr noundef %1) local_unnamed_addr #3 {
  %3 = tail call i32 (ptr, i32, ...) @open64(ptr noundef %0, i32 noundef 0) #15
  %4 = icmp slt i32 %3, 0
  br i1 %4, label %5, label %10

5:                                                ; preds = %2
  %6 = load i32, ptr @git_gettext_enabled, align 4, !tbaa !16
  %.not4.i = icmp eq i32 %6, 0
  br i1 %.not4.i, label %_.exit, label %7

7:                                                ; preds = %5
  %8 = tail call ptr @dcgettext(ptr noundef null, ptr noundef nonnull @.str.4, i32 noundef 5) #15
  br label %_.exit

_.exit:                                           ; preds = %5, %7
  %.0.i = phi ptr [ %8, %7 ], [ @.str.4, %5 ]
  %9 = tail call i32 (ptr, ...) @error(ptr noundef %.0.i, ptr noundef %0) #15
  br label %12

10:                                               ; preds = %2
  %11 = tail call i32 @read_bundle_header_fd(i32 noundef %3, ptr noundef %1, ptr noundef %0)
  br label %12

12:                                               ; preds = %10, %_.exit
  %.0 = phi i32 [ -1, %_.exit ], [ %11, %10 ]
  ret i32 %.0
}